target datalayout = "e-m:e-p270:32:32-p271:32:32-p272:64:64-i64:64-i128:128-f80:128-n8:16:32:64-S128"
target triple = "x86_64-pc-linux-gnu"

%class.LogTagSet = type { ptr, i64, [5 x i32], [4 x i8], %class.LogOutputList, %class.LogDecorators, ptr }
%class.LogOutputList = type <{ [6 x ptr], i32, [4 x i8] }>
%class.LogDecorators = type { i32 }
%class.FileMapInfo = type { i8, i8, i8, i32, i64, ptr, ptr, ptr }
%struct.CDSFileMapHeaderBase = type { %struct.GenericCDSFileMapHeader, [4 x %struct.CDSFileMapRegion] }
%struct.GenericCDSFileMapHeader = type { i32, i32, i32, i32, i32, i32 }
%struct.CDSFileMapRegion = type { i32, i32, i32, i32, i32, i32, i64, i64, i64, i64, i64, i64, i64, ptr }
%class.LogMessageTemplate = type { %class.LogMessageImpl.base, [7 x i8] }
%class.LogMessageImpl.base = type <{ %class.LogMessageBuffer, ptr, i8 }>
%class.LogMessageBuffer = type { ptr, i64, i64, ptr, i64, i64, ptr, i8, i32, ptr }
%class.LogMessageImpl = type <{ %class.LogMessageBuffer, ptr, i8, [7 x i8] }>

@.str.105 = private unnamed_addr constant [31 x i8] c"Unable to seek to position %lu\00", align 1
@.str.110 = private unnamed_addr constant [30 x i8] c"Dumping shared data to file: \00", align 1
@.str.111 = private unnamed_addr constant [6 x i8] c"   %s\00", align 1
@.str.112 = private unnamed_addr constant [47 x i8] c"Unable to create shared archive file %s: (%s).\00", align 1
@_ZN16LogTagSetMappingILN6LogTag4typeE14ELS1_0ELS1_0ELS1_0ELS1_0ELS1_0EE7_tagsetE = linkonce_odr hidden global %class.LogTagSet zeroinitializer, comdat, align 8
@_ZTV14LogMessageImpl = linkonce_odr hidden unnamed_addr constant { [3 x ptr] } { [3 x ptr] [ptr null, ptr null, ptr @_ZN14LogMessageImpl6vwriteEN8LogLevel4typeEPKcP13__va_list_tag] }, comdat, align 8
@_ZTV18LogMessageTemplateILN6LogTag4typeE14ELS1_0ELS1_0ELS1_0ELS1_0ELS1_0EE = linkonce_odr hidden unnamed_addr constant { [3 x ptr] } { [3 x ptr] [ptr null, ptr null, ptr @_ZN14LogMessageImpl6vwriteEN8LogLevel4typeEPKcP13__va_list_tag] }, comdat, align 8

; Function Attrs: mustprogress nounwind uwtable
define linkonce_odr hidden void @_ZN14LogMessageImpl5resetEv(ptr noundef nonnull align 8 dereferenceable(81) %0) #1 comdat align 2 {
  %2 = alloca ptr, align 8
  store ptr %0, ptr %2, align 8
  %3 = load ptr, ptr %2, align 8
  %4 = getelementptr inbounds %class.LogMessageImpl, ptr %3, i32 0, i32 2
  store i8 0, ptr %4, align 8
  call void @_ZN16LogMessageBuffer5resetEv(ptr noundef nonnull align 8 dereferenceable(72) %3)
  ret void
}

; Function Attrs: mustprogress nounwind uwtable
define linkonce_odr hidden void @_ZN14LogMessageImpl5flushEv(ptr noundef nonnull align 8 dereferenceable(81) %0) #1 comdat align 2 {
  %2 = alloca ptr, align 8
  store ptr %0, ptr %2, align 8
  %3 = load ptr, ptr %2, align 8
  %4 = getelementptr inbounds %class.LogMessageImpl, ptr %3, i32 0, i32 1
  %5 = load ptr, ptr %4, align 8
  call void @_ZN9LogTagSet3logERK16LogMessageBuffer(ptr noundef nonnull align 8 dereferenceable(112) %5, ptr noundef nonnull align 8 dereferenceable(72) %3)
  call void @_ZN14LogMessageImpl5resetEv(ptr noundef nonnull align 8 dereferenceable(81) %3)
  ret void
}

; Function Attrs: mustprogress nounwind uwtable
define linkonce_odr hidden noundef zeroext i1 @_ZNK13LogOutputList8is_levelEN8LogLevel4typeE(ptr noundef nonnull align 8 dereferenceable(52) %0, i32 noundef %1) #1 comdat align 2 {
  %3 = alloca ptr, align 8
  %4 = alloca i32, align 4
  store ptr %0, ptr %3, align 8
  store i32 %1, ptr %4, align 4
  %5 = load ptr, ptr %3, align 8
  %6 = getelementptr inbounds %class.LogOutputList, ptr %5, i32 0, i32 0
  %7 = load i32, ptr %4, align 4
  %8 = zext i32 %7 to i64
  %9 = getelementptr inbounds [6 x ptr], ptr %6, i64 0, i64 %8
  %10 = load volatile ptr, ptr %9, align 8
  %11 = icmp ne ptr %10, null
  ret i1 %11
}

; Function Attrs: mustprogress nounwind uwtable
define linkonce_odr hidden void @_ZN14LogMessageImplD2Ev(ptr noundef nonnull align 8 dereferenceable(81) %0) unnamed_addr #1 comdat align 2 {
  %2 = alloca ptr, align 8
  store ptr %0, ptr %2, align 8
  %3 = load ptr, ptr %2, align 8
  store ptr getelementptr inbounds inrange(-16, 8) ({ [3 x ptr] }, ptr @_ZTV14LogMessageImpl, i32 0, i32 0, i32 2), ptr %3, align 8
  %4 = getelementptr inbounds %class.LogMessageImpl, ptr %3, i32 0, i32 2
  %5 = load i8, ptr %4, align 8
  %6 = trunc i8 %5 to i1
  br i1 %6, label %7, label %8

7:                                                ; preds = %1
  call void @_ZN14LogMessageImpl5flushEv(ptr noundef nonnull align 8 dereferenceable(81) %3)
  br label %8

8:                                                ; preds = %7, %1
  call void @_ZN16LogMessageBufferD2Ev(ptr noundef nonnull align 8 dereferenceable(72) %3) #13
  ret void
}

; Function Attrs: mustprogress nounwind uwtable
define linkonce_odr hidden noundef i64 @_Z10align_downImmTnNSt9enable_ifIXcvbsr3std11is_integralIT_EE5valueEiE4typeELi0EES1_S1_T0_(i64 noundef %0, i64 noundef %1) #1 comdat {
  %3 = alloca i64, align 8
  %4 = alloca i64, align 8
  %5 = alloca i64, align 8
  store i64 %0, ptr %3, align 8
  store i64 %1, ptr %4, align 8
  %6 = load i64, ptr %3, align 8
  %7 = load i64, ptr %4, align 8
  %8 = call noundef i64 @_ZL14alignment_maskImTnNSt9enable_ifIXcvbsr3std11is_integralIT_EE5valueEiE4typeELi0EES1_S1_(i64 noundef %7)
  %9 = xor i64 %8, -1
  %10 = and i64 %6, %9
  store i64 %10, ptr %5, align 8
  %11 = load i64, ptr %5, align 8
  ret i64 %11
}

; Function Attrs: mustprogress nounwind uwtable
define linkonce_odr hidden noundef i64 @_Z12checked_castImmET_T0_(i64 noundef %0) #1 comdat {
  %2 = alloca i64, align 8
  %3 = alloca i64, align 8
  store i64 %0, ptr %2, align 8
  %4 = load i64, ptr %2, align 8
  store i64 %4, ptr %3, align 8
  %5 = load i64, ptr %3, align 8
  ret i64 %5
}

; Function Attrs: mustprogress nounwind uwtable
define internal noundef i64 @_ZL14alignment_maskImTnNSt9enable_ifIXcvbsr3std11is_integralIT_EE5valueEiE4typeELi0EES1_S1_(i64 noundef %0) #1 {
  %2 = alloca i64, align 8
  store i64 %0, ptr %2, align 8
  %3 = load i64, ptr %2, align 8
  %4 = sub i64 %3, 1
  ret i64 %4
}

; Function Attrs: mustprogress nounwind uwtable
define linkonce_odr hidden noundef zeroext i1 @_ZNK9LogTagSet8is_levelEN8LogLevel4typeE(ptr noundef nonnull align 8 dereferenceable(112) %0, i32 noundef %1) #1 comdat align 2 {
  %3 = alloca ptr, align 8
  %4 = alloca i32, align 4
  store ptr %0, ptr %3, align 8
  store i32 %1, ptr %4, align 4
  %5 = load ptr, ptr %3, align 8
  %6 = getelementptr inbounds %class.LogTagSet, ptr %5, i32 0, i32 4
  %7 = load i32, ptr %4, align 4
  %8 = call noundef zeroext i1 @_ZNK13LogOutputList8is_levelEN8LogLevel4typeE(ptr noundef nonnull align 8 dereferenceable(52) %6, i32 noundef %7)
  ret i1 %8
}

; Function Attrs: mustprogress nounwind uwtable
define linkonce_odr hidden void @_ZN14LogMessageImplC2ER9LogTagSet(ptr noundef nonnull align 8 dereferenceable(81) %0, ptr noundef nonnull align 8 dereferenceable(112) %1) unnamed_addr #1 comdat align 2 {
  %3 = alloca ptr, align 8
  %4 = alloca ptr, align 8
  store ptr %0, ptr %3, align 8
  store ptr %1, ptr %4, align 8
  %5 = load ptr, ptr %3, align 8
  call void @_ZN16LogMessageBufferC2Ev(ptr noundef nonnull align 8 dereferenceable(72) %5)
  store ptr getelementptr inbounds inrange(-16, 8) ({ [3 x ptr] }, ptr @_ZTV14LogMessageImpl, i32 0, i32 0, i32 2), ptr %5, align 8
  %6 = getelementptr inbounds %class.LogMessageImpl, ptr %5, i32 0, i32 1
  %7 = load ptr, ptr %4, align 8
  store ptr %7, ptr %6, align 8
  %8 = getelementptr inbounds %class.LogMessageImpl, ptr %5, i32 0, i32 2
  store i8 0, ptr %8, align 8
  ret void
}

; Function Attrs: mustprogress nounwind uwtable
define linkonce_odr hidden noundef nonnull align 8 dereferenceable(112) ptr @_ZN16LogTagSetMappingILN6LogTag4typeE14ELS1_0ELS1_0ELS1_0ELS1_0ELS1_0EE6tagsetEv() #1 comdat align 2 {
  ret ptr @_ZN16LogTagSetMappingILN6LogTag4typeE14ELS1_0ELS1_0ELS1_0ELS1_0ELS1_0EE7_tagsetE
}

; Function Attrs: mustprogress nounwind uwtable
define linkonce_odr hidden void @_ZN18LogMessageTemplateILN6LogTag4typeE14ELS1_0ELS1_0ELS1_0ELS1_0ELS1_0EED2Ev(ptr noundef nonnull align 8 dereferenceable(81) %0) unnamed_addr #1 comdat align 2 {
  %2 = alloca ptr, align 8
  store ptr %0, ptr %2, align 8
  %3 = load ptr, ptr %2, align 8
  call void @_ZN14LogMessageImplD2Ev(ptr noundef nonnull align 8 dereferenceable(81) %3) #13
  ret void
}

; Function Attrs: mustprogress nounwind uwtable
define hidden void @_ZN11FileMapInfo16seek_to_positionEm(ptr noundef nonnull align 8 dereferenceable(40) %0, i64 noundef %1) #1 align 2 {
  %3 = alloca ptr, align 8
  %4 = alloca i64, align 8
  store ptr %0, ptr %3, align 8
  store i64 %1, ptr %4, align 8
  %5 = load ptr, ptr %3, align 8
  %6 = getelementptr inbounds %class.FileMapInfo, ptr %5, i32 0, i32 3
  %7 = load i32, ptr %6, align 4
  %8 = load i64, ptr %4, align 8
  %9 = call noundef i64 @_ZN2os5lseekEili(i32 noundef %7, i64 noundef %8, i32 noundef 0)
  %10 = icmp slt i64 %9, 0
  br i1 %10, label %11, label %17

11:                                               ; preds = %2
  %12 = call noundef zeroext i1 @_ZN7LogImplILN6LogTag4typeE14ELS1_0ELS1_0ELS1_0ELS1_0ELS1_0EE8is_levelEN8LogLevel4typeE(i32 noundef 5)
  br i1 %12, label %14, label %13

13:                                               ; preds = %11
  br label %16

14:                                               ; preds = %11
  %15 = load i64, ptr %4, align 8
  call void (ptr, ...) @_ZN7LogImplILN6LogTag4typeE14ELS1_0ELS1_0ELS1_0ELS1_0ELS1_0EE5writeILN8LogLevel4typeE5EEEvPKcz(ptr noundef @.str.105, i64 noundef %15)
  br label %16

16:                                               ; preds = %14, %13
  call void @_ZN15MetaspaceShared27unrecoverable_loading_errorEPKc(ptr noundef null)
  br label %17

17:                                               ; preds = %16, %2
  ret void
}

; Function Attrs: mustprogress nounwind uwtable
define linkonce_odr hidden noundef i64 @_Z8align_upImmTnNSt9enable_ifIXcvbsr3std11is_integralIT_EE5valueEiE4typeELi0EES1_S1_T0_(i64 noundef %0, i64 noundef %1) #1 comdat {
  %3 = alloca i64, align 8
  %4 = alloca i64, align 8
  %5 = alloca i64, align 8
  store i64 %0, ptr %3, align 8
  store i64 %1, ptr %4, align 8
  %6 = load i64, ptr %3, align 8
  %7 = load i64, ptr %4, align 8
  %8 = call noundef i64 @_ZL14alignment_maskImTnNSt9enable_ifIXcvbsr3std11is_integralIT_EE5valueEiE4typeELi0EES1_S1_(i64 noundef %7)
  %9 = add i64 %6, %8
  %10 = call noundef i64 @_Z12checked_castImmET_T0_(i64 noundef %9)
  store i64 %10, ptr %5, align 8
  %11 = load i64, ptr %5, align 8
  %12 = load i64, ptr %4, align 8
  %13 = call noundef i64 @_Z10align_downImmTnNSt9enable_ifIXcvbsr3std11is_integralIT_EE5valueEiE4typeELi0EES1_S1_T0_(i64 noundef %11, i64 noundef %12)
  ret i64 %13
}

; Function Attrs: mustprogress nounwind uwtable
define linkonce_odr hidden noundef i32 @_ZNK13FileMapHeader11header_sizeEv(ptr noundef nonnull align 8 dereferenceable(792) %0) #1 comdat align 2 {
  %2 = alloca ptr, align 8
  store ptr %0, ptr %2, align 8
  %3 = load ptr, ptr %2, align 8
  %4 = getelementptr inbounds %struct.CDSFileMapHeaderBase, ptr %3, i32 0, i32 0
  %5 = getelementptr inbounds %struct.GenericCDSFileMapHeader, ptr %4, i32 0, i32 3
  %6 = load i32, ptr %5, align 4
  ret i32 %6
}

; Function Attrs: mustprogress nounwind uwtable
define linkonce_odr hidden noundef ptr @_ZNK11FileMapInfo6headerEv(ptr noundef nonnull align 8 dereferenceable(40) %0) #1 comdat align 2 {
  %2 = alloca ptr, align 8
  store ptr %0, ptr %2, align 8
  %3 = load ptr, ptr %2, align 8
  %4 = getelementptr inbounds %class.FileMapInfo, ptr %3, i32 0, i32 7
  %5 = load ptr, ptr %4, align 8
  ret ptr %5
}

; Function Attrs: mustprogress nounwind uwtable
define linkonce_odr hidden noundef zeroext i1 @_ZN7LogImplILN6LogTag4typeE14ELS1_0ELS1_0ELS1_0ELS1_0ELS1_0EE8is_levelEN8LogLevel4typeE(i32 noundef %0) #1 comdat align 2 {
  %2 = alloca i32, align 4
  store i32 %0, ptr %2, align 4
  %3 = call noundef nonnull align 8 dereferenceable(112) ptr @_ZN16LogTagSetMappingILN6LogTag4typeE14ELS1_0ELS1_0ELS1_0ELS1_0ELS1_0EE6tagsetEv()
  %4 = load i32, ptr %2, align 4
  %5 = call noundef zeroext i1 @_ZNK9LogTagSet8is_levelEN8LogLevel4typeE(ptr noundef nonnull align 8 dereferenceable(112) %3, i32 noundef %4)
  ret i1 %5
}

; Function Attrs: mustprogress nounwind uwtable
define linkonce_odr hidden noundef zeroext i1 @_ZNK14LogMessageImpl7is_infoEv(ptr noundef nonnull align 8 dereferenceable(81) %0) #1 comdat align 2 {
  %2 = alloca ptr, align 8
  store ptr %0, ptr %2, align 8
  %3 = load ptr, ptr %2, align 8
  %4 = getelementptr inbounds %class.LogMessageImpl, ptr %3, i32 0, i32 1
  %5 = load ptr, ptr %4, align 8
  %6 = call noundef zeroext i1 @_ZNK9LogTagSet8is_levelEN8LogLevel4typeE(ptr noundef nonnull align 8 dereferenceable(112) %5, i32 noundef 3)
  ret i1 %6
}

; Function Attrs: mustprogress nounwind uwtable
define linkonce_odr hidden void @_ZN18LogMessageTemplateILN6LogTag4typeE14ELS1_0ELS1_0ELS1_0ELS1_0ELS1_0EEC2Ev(ptr noundef nonnull align 8 dereferenceable(81) %0) unnamed_addr #1 comdat align 2 {
  %2 = alloca ptr, align 8
  store ptr %0, ptr %2, align 8
  %3 = load ptr, ptr %2, align 8
  %4 = call noundef nonnull align 8 dereferenceable(112) ptr @_ZN16LogTagSetMappingILN6LogTag4typeE14ELS1_0ELS1_0ELS1_0ELS1_0ELS1_0EE6tagsetEv()
  call void @_ZN14LogMessageImplC2ER9LogTagSet(ptr noundef nonnull align 8 dereferenceable(81) %3, ptr noundef nonnull align 8 dereferenceable(112) %4)
  store ptr getelementptr inbounds inrange(-16, 8) ({ [3 x ptr] }, ptr @_ZTV18LogMessageTemplateILN6LogTag4typeE14ELS1_0ELS1_0ELS1_0ELS1_0ELS1_0EE, i32 0, i32 0, i32 2), ptr %3, align 8
  ret void
}

; Function Attrs: mustprogress nounwind uwtable
define hidden void @_ZN11FileMapInfo14open_for_writeEv(ptr noundef nonnull align 8 dereferenceable(40) %0) #1 align 2 {
  %2 = alloca ptr, align 8
  %3 = alloca %class.LogMessageTemplate, align 8
  %4 = alloca i32, align 4
  %5 = alloca i32, align 4
  %6 = alloca i64, align 8
  store ptr %0, ptr %2, align 8
  %7 = load ptr, ptr %2, align 8
  call void @_ZN18LogMessageTemplateILN6LogTag4typeE14ELS1_0ELS1_0ELS1_0ELS1_0ELS1_0EEC2Ev(ptr noundef nonnull align 8 dereferenceable(81) %3)
  %8 = call noundef zeroext i1 @_ZNK14LogMessageImpl7is_infoEv(ptr noundef nonnull align 8 dereferenceable(81) %3)
  br i1 %8, label %9, label %14

9:                                                ; preds = %1
  %10 = call noundef nonnull align 8 dereferenceable(72) ptr (ptr, ptr, ...) @_ZN16LogMessageBuffer4infoEPKcz(ptr noundef nonnull align 8 dereferenceable(72) %3, ptr noundef @.str.110)
  %11 = getelementptr inbounds %class.FileMapInfo, ptr %7, i32 0, i32 5
  %12 = load ptr, ptr %11, align 8
  %13 = call noundef nonnull align 8 dereferenceable(72) ptr (ptr, ptr, ...) @_ZN16LogMessageBuffer4infoEPKcz(ptr noundef nonnull align 8 dereferenceable(72) %3, ptr noundef @.str.111, ptr noundef %12)
  br label %14

14:                                               ; preds = %9, %1
  %15 = getelementptr inbounds %class.FileMapInfo, ptr %7, i32 0, i32 5
  %16 = load ptr, ptr %15, align 8
  %17 = call i32 @remove(ptr noundef %16) #13
  %18 = getelementptr inbounds %class.FileMapInfo, ptr %7, i32 0, i32 5
  %19 = load ptr, ptr %18, align 8
  %20 = call noundef i32 @_ZN2os4openEPKcii(ptr noundef %19, i32 noundef 578, i32 noundef 292)
  store i32 %20, ptr %4, align 4
  %21 = load i32, ptr %4, align 4
  %22 = icmp slt i32 %21, 0
  br i1 %22, label %23, label %33

23:                                               ; preds = %14
  %24 = call noundef zeroext i1 @_ZN7LogImplILN6LogTag4typeE14ELS1_0ELS1_0ELS1_0ELS1_0ELS1_0EE8is_levelEN8LogLevel4typeE(i32 noundef 5)
  br i1 %24, label %26, label %25

25:                                               ; preds = %23
  br label %32

26:                                               ; preds = %23
  %27 = getelementptr inbounds %class.FileMapInfo, ptr %7, i32 0, i32 5
  %28 = load ptr, ptr %27, align 8
  %29 = call ptr @__errno_location() #14
  %30 = load i32, ptr %29, align 4
  %31 = call noundef ptr @_ZN2os8strerrorEi(i32 noundef %30)
  call void (ptr, ...) @_ZN7LogImplILN6LogTag4typeE14ELS1_0ELS1_0ELS1_0ELS1_0ELS1_0EE5writeILN8LogLevel4typeE5EEEvPKcz(ptr noundef @.str.112, ptr noundef %28, ptr noundef %31)
  br label %32

32:                                               ; preds = %26, %25
  call void @_ZN15MetaspaceShared13writing_errorEPKc(ptr noundef null)
  store i32 1, ptr %5, align 4
  br label %47

33:                                               ; preds = %14
  %34 = load i32, ptr %4, align 4
  %35 = getelementptr inbounds %class.FileMapInfo, ptr %7, i32 0, i32 3
  store i32 %34, ptr %35, align 4
  %36 = getelementptr inbounds %class.FileMapInfo, ptr %7, i32 0, i32 1
  store i8 1, ptr %36, align 1
  %37 = call noundef ptr @_ZNK11FileMapInfo6headerEv(ptr noundef nonnull align 8 dereferenceable(40) %7)
  %38 = call noundef i32 @_ZNK13FileMapHeader11header_sizeEv(ptr noundef nonnull align 8 dereferenceable(792) %37)
  %39 = zext i32 %38 to i64
  store i64 %39, ptr %6, align 8
  %40 = load i64, ptr %6, align 8
  %41 = call noundef i64 @_ZN15MetaspaceShared21core_region_alignmentEv()
  %42 = call noundef i64 @_Z8align_upImmTnNSt9enable_ifIXcvbsr3std11is_integralIT_EE5valueEiE4typeELi0EES1_S1_T0_(i64 noundef %40, i64 noundef %41)
  store i64 %42, ptr %6, align 8
  %43 = load i64, ptr %6, align 8
  %44 = getelementptr inbounds %class.FileMapInfo, ptr %7, i32 0, i32 4
  store i64 %43, ptr %44, align 8
  %45 = getelementptr inbounds %class.FileMapInfo, ptr %7, i32 0, i32 4
  %46 = load i64, ptr %45, align 8
  call void @_ZN11FileMapInfo16seek_to_positionEm(ptr noundef nonnull align 8 dereferenceable(40) %7, i64 noundef %46)
  store i32 0, ptr %5, align 4
  br label %47

47:                                               ; preds = %33, %32
  call void @_ZN18LogMessageTemplateILN6LogTag4typeE14ELS1_0ELS1_0ELS1_0ELS1_0ELS1_0EED2Ev(ptr noundef nonnull align 8 dereferenceable(81) %3) #13
  %48 = load i32, ptr %5, align 4
  switch i32 %48, label %50 [
    i32 0, label %49
    i32 1, label %49
  ]

49:                                               ; preds = %47, %47
  ret void

50:                                               ; preds = %47
  unreachable
}