; Function Attrs: mustprogress nounwind uwtable
define hidden void @_ZN11FileMapInfo14open_for_writeEv(ptr nocapture noundef nonnull align 8 dereferenceable(40) %0) local_unnamed_addr #0 align 2 {
  %2 = alloca %class.LogMessageTemplate, align 8
  call void @_ZN16LogMessageBufferC2Ev(ptr noundef nonnull align 8 dereferenceable(72) %2) #25
  %3 = getelementptr inbounds i8, ptr %2, i64 72
  store ptr @_ZN16LogTagSetMappingILN6LogTag4typeE14ELS1_0ELS1_0ELS1_0ELS1_0ELS1_0EE7_tagsetE, ptr %3, align 8
  %4 = getelementptr inbounds i8, ptr %2, i64 80
  store i8 0, ptr %4, align 8
  store ptr getelementptr inbounds inrange(-16, 8) (i8, ptr @_ZTV18LogMessageTemplateILN6LogTag4typeE14ELS1_0ELS1_0ELS1_0ELS1_0ELS1_0EE, i64 16), ptr %2, align 8
  %5 = load volatile ptr, ptr getelementptr inbounds (i8, ptr @_ZN16LogTagSetMappingILN6LogTag4typeE14ELS1_0ELS1_0ELS1_0ELS1_0ELS1_0EE7_tagsetE, i64 64), align 8
  %.not = icmp eq ptr %5, null
  br i1 %.not, label %11, label %6

6:                                                ; preds = %1
  %7 = call noundef nonnull align 8 dereferenceable(72) ptr (ptr, ptr, ...) @_ZN16LogMessageBuffer4infoEPKcz(ptr noundef nonnull align 8 dereferenceable(72) %2, ptr noundef nonnull @.str.110) #25
  %8 = getelementptr inbounds i8, ptr %0, i64 16
  %9 = load ptr, ptr %8, align 8
  %10 = call noundef nonnull align 8 dereferenceable(72) ptr (ptr, ptr, ...) @_ZN16LogMessageBuffer4infoEPKcz(ptr noundef nonnull align 8 dereferenceable(72) %2, ptr noundef nonnull @.str.111, ptr noundef %9) #25
  br label %11

11:                                               ; preds = %6, %1
  %12 = getelementptr inbounds i8, ptr %0, i64 16
  %13 = load ptr, ptr %12, align 8
  %14 = call i32 @remove(ptr noundef %13) #25
  %15 = load ptr, ptr %12, align 8
  %16 = call noundef i32 @_ZN2os4openEPKcii(ptr noundef %15, i32 noundef 578, i32 noundef 292) #25
  %17 = icmp slt i32 %16, 0
  br i1 %17, label %18, label %26

18:                                               ; preds = %11
  %19 = load volatile ptr, ptr getelementptr inbounds (i8, ptr @_ZN16LogTagSetMappingILN6LogTag4typeE14ELS1_0ELS1_0ELS1_0ELS1_0ELS1_0EE7_tagsetE, i64 80), align 8
  %.not4 = icmp eq ptr %19, null
  br i1 %.not4, label %25, label %20

20:                                               ; preds = %18
  %21 = load ptr, ptr %12, align 8
  %22 = tail call ptr @__errno_location() #27
  %23 = load i32, ptr %22, align 4
  %24 = call noundef ptr @_ZN2os8strerrorEi(i32 noundef %23) #25
  call void (ptr, ...) @_ZN7LogImplILN6LogTag4typeE14ELS1_0ELS1_0ELS1_0ELS1_0ELS1_0EE5writeILN8LogLevel4typeE5EEEvPKcz(ptr noundef nonnull @.str.112, ptr noundef %21, ptr noundef %24)
  br label %25

25:                                               ; preds = %18, %20
  call void @_ZN15MetaspaceShared13writing_errorEPKc(ptr noundef null) #25
  br label %_ZN11FileMapInfo16seek_to_positionEm.exit

26:                                               ; preds = %11
  %27 = getelementptr inbounds i8, ptr %0, i64 4
  store i32 %16, ptr %27, align 4
  %28 = getelementptr inbounds i8, ptr %0, i64 1
  store i8 1, ptr %28, align 1
  %29 = getelementptr inbounds i8, ptr %0, i64 32
  %30 = load ptr, ptr %29, align 8
  %31 = getelementptr inbounds i8, ptr %30, i64 12
  %32 = load i32, ptr %31, align 4
  %33 = zext i32 %32 to i64
  %34 = call noundef i64 @_ZN15MetaspaceShared21core_region_alignmentEv() #25
  %35 = add nsw i64 %33, -1
  %36 = add i64 %35, %34
  %37 = sub i64 0, %34
  %38 = and i64 %36, %37
  %39 = getelementptr inbounds i8, ptr %0, i64 8
  store i64 %38, ptr %39, align 8
  %40 = load i32, ptr %27, align 4
  %41 = call noundef i64 @_ZN2os5lseekEili(i32 noundef %40, i64 noundef %38, i32 noundef 0) #25
  %42 = icmp slt i64 %41, 0
  br i1 %42, label %43, label %_ZN11FileMapInfo16seek_to_positionEm.exit

43:                                               ; preds = %26
  %44 = load volatile ptr, ptr getelementptr inbounds (i8, ptr @_ZN16LogTagSetMappingILN6LogTag4typeE14ELS1_0ELS1_0ELS1_0ELS1_0ELS1_0EE7_tagsetE, i64 80), align 8
  %.not.i = icmp eq ptr %44, null
  br i1 %.not.i, label %46, label %45

45:                                               ; preds = %43
  call void (ptr, ...) @_ZN7LogImplILN6LogTag4typeE14ELS1_0ELS1_0ELS1_0ELS1_0ELS1_0EE5writeILN8LogLevel4typeE5EEEvPKcz(ptr noundef nonnull @.str.105, i64 noundef %38)
  br label %46

46:                                               ; preds = %45, %43
  call void @_ZN15MetaspaceShared27unrecoverable_loading_errorEPKc(ptr noundef null) #25
  br label %_ZN11FileMapInfo16seek_to_positionEm.exit

_ZN11FileMapInfo16seek_to_positionEm.exit:        ; preds = %46, %26, %25
  store ptr getelementptr inbounds inrange(-16, 8) (i8, ptr @_ZTV14LogMessageImpl, i64 16), ptr %2, align 8
  %47 = load i8, ptr %4, align 8
  %48 = trunc i8 %47 to i1
  br i1 %48, label %49, label %_ZN18LogMessageTemplateILN6LogTag4typeE14ELS1_0ELS1_0ELS1_0ELS1_0ELS1_0EED2Ev.exit

49:                                               ; preds = %_ZN11FileMapInfo16seek_to_positionEm.exit
  %50 = load ptr, ptr %3, align 8
  call void @_ZN9LogTagSet3logERK16LogMessageBuffer(ptr noundef nonnull align 8 dereferenceable(112) %50, ptr noundef nonnull align 8 dereferenceable(72) %2) #25
  store i8 0, ptr %4, align 8
  call void @_ZN16LogMessageBuffer5resetEv(ptr noundef nonnull align 8 dereferenceable(72) %2) #25
  br label %_ZN18LogMessageTemplateILN6LogTag4typeE14ELS1_0ELS1_0ELS1_0ELS1_0ELS1_0EED2Ev.exit

_ZN18LogMessageTemplateILN6LogTag4typeE14ELS1_0ELS1_0ELS1_0ELS1_0ELS1_0EED2Ev.exit: ; preds = %_ZN11FileMapInfo16seek_to_positionEm.exit, %49
  call void @_ZN16LogMessageBufferD2Ev(ptr noundef nonnull align 8 dereferenceable(72) %2) #25
  ret void
}